target datalayout = "e-m:e-p270:32:32-p271:32:32-p272:64:64-i64:64-i128:128-f80:128-n8:16:32:64-S128"
target triple = "x86_64-pc-linux-gnu"

@.str = private unnamed_addr constant [32 x i8] c"../openssl/crypto/pem/pem_pk8.c\00", align 1
@__func__.d2i_PKCS8PrivateKey_fp = private unnamed_addr constant [23 x i8] c"d2i_PKCS8PrivateKey_fp\00", align 1

; Function Attrs: nounwind uwtable
define ptr @d2i_PKCS8PrivateKey_fp(ptr noundef %0, ptr noundef %1, ptr noundef %2, ptr noundef %3) #0 {
  %5 = alloca ptr, align 8
  %6 = alloca ptr, align 8
  %7 = alloca ptr, align 8
  %8 = alloca ptr, align 8
  %9 = alloca ptr, align 8
  %10 = alloca ptr, align 8
  %11 = alloca ptr, align 8
  %12 = alloca i32, align 4
  store ptr %0, ptr %6, align 8, !tbaa !25
  store ptr %1, ptr %7, align 8, !tbaa !23
  store ptr %2, ptr %8, align 8, !tbaa !14
  store ptr %3, ptr %9, align 8, !tbaa !14
  call void @llvm.lifetime.start.p0(i64 8, ptr %10) #4
  call void @llvm.lifetime.start.p0(i64 8, ptr %11) #4
  %13 = load ptr, ptr %6, align 8, !tbaa !25
  %14 = call ptr @BIO_new_fp(ptr noundef %13, i32 noundef 0)
  store ptr %14, ptr %10, align 8, !tbaa !3
  %15 = icmp eq ptr %14, null
  br i1 %15, label %16, label %17

16:                                               ; preds = %4
  call void @ERR_new()
  call void @ERR_set_debug(ptr noundef @.str, i32 noundef 259, ptr noundef @__func__.d2i_PKCS8PrivateKey_fp)
  call void (i32, i32, ptr, ...) @ERR_set_error(i32 noundef 9, i32 noundef 524295, ptr noundef null)
  store ptr null, ptr %5, align 8
  store i32 1, ptr %12, align 4
  br label %26

17:                                               ; preds = %4
  %18 = load ptr, ptr %10, align 8, !tbaa !3
  %19 = load ptr, ptr %7, align 8, !tbaa !23
  %20 = load ptr, ptr %8, align 8, !tbaa !14
  %21 = load ptr, ptr %9, align 8, !tbaa !14
  %22 = call ptr @d2i_PKCS8PrivateKey_bio(ptr noundef %18, ptr noundef %19, ptr noundef %20, ptr noundef %21)
  store ptr %22, ptr %11, align 8, !tbaa !8
  %23 = load ptr, ptr %10, align 8, !tbaa !3
  %24 = call i32 @BIO_free(ptr noundef %23)
  %25 = load ptr, ptr %11, align 8, !tbaa !8
  store ptr %25, ptr %5, align 8
  store i32 1, ptr %12, align 4
  br label %26

26:                                               ; preds = %17, %16
  call void @llvm.lifetime.end.p0(i64 8, ptr %11) #4
  call void @llvm.lifetime.end.p0(i64 8, ptr %10) #4
  %27 = load ptr, ptr %5, align 8
  ret ptr %27
}