; Function Attrs: nounwind uwtable
define ptr @d2i_PKCS8PrivateKey_fp(ptr noundef %0, ptr noundef captures(address_is_null) %1, ptr noundef captures(address_is_null) %2, ptr noundef %3) local_unnamed_addr #0 {
  %5 = tail call ptr @BIO_new_fp(ptr noundef %0, i32 noundef 0) #4
  %6 = icmp eq ptr %5, null
  br i1 %6, label %7, label %8

7:                                                ; preds = %4
  tail call void @ERR_new() #4
  tail call void @ERR_set_debug(ptr noundef nonnull @.str, i32 noundef 259, ptr noundef nonnull @__func__.d2i_PKCS8PrivateKey_fp) #4
  tail call void (i32, i32, ptr, ...) @ERR_set_error(i32 noundef 9, i32 noundef 524295, ptr noundef null) #4
  br label %11

8:                                                ; preds = %4
  %9 = tail call ptr @d2i_PKCS8PrivateKey_bio(ptr noundef nonnull %5, ptr noundef %1, ptr noundef %2, ptr noundef %3)
  %10 = tail call i32 @BIO_free(ptr noundef nonnull %5) #4
  br label %11

11:                                               ; preds = %8, %7
  %.0 = phi ptr [ null, %7 ], [ %9, %8 ]
  ret ptr %.0
}